target datalayout = "e-m:e-p270:32:32-p271:32:32-p272:64:64-i64:64-i128:128-f80:128-n8:16:32:64-S128"
target triple = "x86_64-pc-linux-gnu"

; Function Attrs: mustprogress nounwind uwtable
define dso_local noundef i32 @_ZN4llvm5RTLIB34getMEMSET_ELEMENT_UNORDERED_ATOMICEm(i64 noundef %0) #1 {
  %2 = alloca i32, align 4
  %3 = alloca i64, align 8
  store i64 %0, ptr %3, align 8
  %4 = load i64, ptr %3, align 8
  switch i64 %4, label %10 [
    i64 1, label %5
    i64 2, label %6
    i64 4, label %7
    i64 8, label %8
    i64 16, label %9
  ]

5:                                                ; preds = %1
  store i32 454, ptr %2, align 4
  br label %11

6:                                                ; preds = %1
  store i32 455, ptr %2, align 4
  br label %11

7:                                                ; preds = %1
  store i32 456, ptr %2, align 4
  br label %11

8:                                                ; preds = %1
  store i32 457, ptr %2, align 4
  br label %11

9:                                                ; preds = %1
  store i32 458, ptr %2, align 4
  br label %11

10:                                               ; preds = %1
  store i32 700, ptr %2, align 4
  br label %11

11:                                               ; preds = %10, %9, %8, %7, %6, %5
  %12 = load i32, ptr %2, align 4
  ret i32 %12
}