; Function Attrs: mustprogress nofree norecurse nosync nounwind willreturn memory(none) uwtable
define dso_local noundef range(i32 454, 701) i32 @_ZN4llvm5RTLIB34getMEMSET_ELEMENT_UNORDERED_ATOMICEm(i64 noundef %0) local_unnamed_addr #2 {
  switch i64 %0, label %6 [
    i64 1, label %7
    i64 2, label %2
    i64 4, label %3
    i64 8, label %4
    i64 16, label %5
  ]

2:                                                ; preds = %1
  br label %7

3:                                                ; preds = %1
  br label %7

4:                                                ; preds = %1
  br label %7

5:                                                ; preds = %1
  br label %7

6:                                                ; preds = %1
  br label %7

7:                                                ; preds = %1, %6, %5, %4, %3, %2
  %.0 = phi i32 [ 700, %6 ], [ 458, %5 ], [ 457, %4 ], [ 456, %3 ], [ 455, %2 ], [ 454, %1 ]
  ret i32 %.0
}